target datalayout = "e-m:e-p270:32:32-p271:32:32-p272:64:64-i64:64-i128:128-f80:128-n8:16:32:64-S128"
target triple = "x86_64-pc-linux-gnu"

%struct.strbuf = type { i64, i64, ptr }

@.str.43 = private unnamed_addr constant [11 x i8] c"text/plain\00", align 1
@stderr = external global ptr, align 8
@.str.44 = private unnamed_addr constant [14 x i8] c"remote: %.*s\0A\00", align 1

; Function Attrs: nounwind uwtable
define internal i32 @show_http_message(ptr noundef %0, ptr noundef %1, ptr noundef %2) #0 {
  %4 = alloca i32, align 4
  %5 = alloca ptr, align 8
  %6 = alloca ptr, align 8
  %7 = alloca ptr, align 8
  %8 = alloca ptr, align 8
  %9 = alloca ptr, align 8
  %10 = alloca i32, align 4
  store ptr %0, ptr %5, align 8, !tbaa !35
  store ptr %1, ptr %6, align 8, !tbaa !35
  store ptr %2, ptr %7, align 8, !tbaa !35
  call void @llvm.lifetime.start.p0(i64 8, ptr %8) #10
  call void @llvm.lifetime.start.p0(i64 8, ptr %9) #10
  %11 = load ptr, ptr %5, align 8, !tbaa !35
  %12 = getelementptr inbounds nuw %struct.strbuf, ptr %11, i32 0, i32 2
  %13 = load ptr, ptr %12, align 8, !tbaa !28
  %14 = call i32 @strcmp(ptr noundef %13, ptr noundef @.str.43) #12
  %15 = icmp ne i32 %14, 0
  br i1 %15, label %16, label %17

16:                                               ; preds = %3
  store i32 -1, ptr %4, align 4
  store i32 1, ptr %10, align 4
  br label %59

17:                                               ; preds = %3
  %18 = load ptr, ptr %6, align 8, !tbaa !35
  %19 = getelementptr inbounds nuw %struct.strbuf, ptr %18, i32 0, i32 1
  %20 = load i64, ptr %19, align 8, !tbaa !32
  %21 = icmp ne i64 %20, 0
  br i1 %21, label %22, label %29

22:                                               ; preds = %17
  %23 = load ptr, ptr %7, align 8, !tbaa !35
  %24 = load ptr, ptr %6, align 8, !tbaa !35
  %25 = getelementptr inbounds nuw %struct.strbuf, ptr %24, i32 0, i32 2
  %26 = load ptr, ptr %25, align 8, !tbaa !28
  %27 = call ptr @get_log_output_encoding()
  %28 = call i32 @strbuf_reencode(ptr noundef %23, ptr noundef %26, ptr noundef %27)
  br label %29

29:                                               ; preds = %22, %17
  %30 = load ptr, ptr %7, align 8, !tbaa !35
  call void @strbuf_trim(ptr noundef %30)
  %31 = load ptr, ptr %7, align 8, !tbaa !35
  %32 = getelementptr inbounds nuw %struct.strbuf, ptr %31, i32 0, i32 1
  %33 = load i64, ptr %32, align 8, !tbaa !32
  %34 = icmp ne i64 %33, 0
  br i1 %34, label %36, label %35

35:                                               ; preds = %29
  store i32 -1, ptr %4, align 4
  store i32 1, ptr %10, align 4
  br label %59

36:                                               ; preds = %29
  %37 = load ptr, ptr %7, align 8, !tbaa !35
  %38 = getelementptr inbounds nuw %struct.strbuf, ptr %37, i32 0, i32 2
  %39 = load ptr, ptr %38, align 8, !tbaa !28
  store ptr %39, ptr %8, align 8, !tbaa !18
  br label %40

40:                                               ; preds = %54, %36
  %41 = load ptr, ptr %8, align 8, !tbaa !18
  %42 = call ptr @strchrnul(ptr noundef %41, i32 noundef 10) #12
  store ptr %42, ptr %9, align 8, !tbaa !18
  %43 = load ptr, ptr @stderr, align 8, !tbaa !30
  %44 = load ptr, ptr %9, align 8, !tbaa !18
  %45 = load ptr, ptr %8, align 8, !tbaa !18
  %46 = ptrtoint ptr %44 to i64
  %47 = ptrtoint ptr %45 to i64
  %48 = sub i64 %46, %47
  %49 = trunc i64 %48 to i32
  %50 = load ptr, ptr %8, align 8, !tbaa !18
  %51 = call i32 (ptr, ptr, ...) @fprintf(ptr noundef %43, ptr noundef @.str.44, i32 noundef %49, ptr noundef %50) #10
  %52 = load ptr, ptr %9, align 8, !tbaa !18
  %53 = getelementptr inbounds i8, ptr %52, i64 1
  store ptr %53, ptr %8, align 8, !tbaa !18
  br label %54

54:                                               ; preds = %40
  %55 = load ptr, ptr %9, align 8, !tbaa !18
  %56 = load i8, ptr %55, align 1, !tbaa !34
  %57 = icmp ne i8 %56, 0
  br i1 %57, label %40, label %58, !llvm.loop !105

58:                                               ; preds = %54
  store i32 0, ptr %4, align 4
  store i32 1, ptr %10, align 4
  br label %59

59:                                               ; preds = %58, %35, %16
  call void @llvm.lifetime.end.p0(i64 8, ptr %9) #10
  call void @llvm.lifetime.end.p0(i64 8, ptr %8) #10
  %60 = load i32, ptr %4, align 4
  ret i32 %60
}