; Function Attrs: nounwind uwtable
define internal fastcc void @show_http_message(ptr readonly captures(none) %.16.val, i64 %.8.val, ptr %.16.val1, ptr noundef nonnull %0) unnamed_addr #0 {
  %2 = tail call i32 @strcmp(ptr noundef nonnull dereferenceable(1) %.16.val, ptr noundef nonnull dereferenceable(11) @.str.43) #19
  %.not = icmp eq i32 %2, 0
  br i1 %.not, label %3, label %.loopexit

3:                                                ; preds = %1
  %.not14 = icmp eq i64 %.8.val, 0
  br i1 %.not14, label %7, label %4

4:                                                ; preds = %3
  %5 = tail call ptr @get_log_output_encoding() #17
  %6 = tail call i32 @strbuf_reencode(ptr noundef nonnull %0, ptr noundef %.16.val1, ptr noundef %5) #17
  br label %7

7:                                                ; preds = %4, %3
  tail call void @strbuf_trim(ptr noundef nonnull %0) #17
  %8 = getelementptr inbounds nuw i8, ptr %0, i64 8
  %9 = load i64, ptr %8, align 8, !tbaa !31
  %.not15 = icmp eq i64 %9, 0
  br i1 %.not15, label %.loopexit, label %10

10:                                               ; preds = %7
  %11 = getelementptr inbounds nuw i8, ptr %0, i64 16
  %12 = load ptr, ptr %11, align 8, !tbaa !27
  br label %13

13:                                               ; preds = %13, %10
  %.013 = phi ptr [ %12, %10 ], [ %21, %13 ]
  %14 = tail call ptr @strchrnul(ptr noundef %.013, i32 noundef 10) #19
  %15 = load ptr, ptr @stderr, align 8, !tbaa !29
  %16 = ptrtoint ptr %14 to i64
  %17 = ptrtoint ptr %.013 to i64
  %18 = sub i64 %16, %17
  %19 = trunc i64 %18 to i32
  %20 = tail call i32 (ptr, ptr, ...) @fprintf(ptr noundef %15, ptr noundef nonnull @.str.44, i32 noundef %19, ptr noundef %.013) #20
  %21 = getelementptr inbounds nuw i8, ptr %14, i64 1
  %22 = load i8, ptr %14, align 1, !tbaa !34
  %.not16 = icmp eq i8 %22, 0
  br i1 %.not16, label %.loopexit, label %13, !llvm.loop !113

.loopexit:                                        ; preds = %13, %7, %1
  ret void
}